 Kalman_boucle_mex

 Timestamp is 52cbb759 (Tue Jan 07 09:14:17 2014)

 Preferred load address is 0000000180000000

 Start         Length     Name                   Class
 0001:00000000 00003d82H .text                   CODE
 0001:00003d90 00000091H .text$x                 CODE
 0002:00000000 00000240H .idata$5                DATA
 0002:00000240 00000008H .CRT$XCA                DATA
 0002:00000248 00000008H .CRT$XCZ                DATA
 0002:00000250 00000008H .CRT$XIA                DATA
 0002:00000258 00000008H .CRT$XIAA               DATA
 0002:00000260 00000008H .CRT$XIZ                DATA
 0002:00000270 00000d80H .rdata                  DATA
 0002:00000ff0 00000008H .rtc$IAA                DATA
 0002:00000ff8 00000008H .rtc$IZZ                DATA
 0002:00001000 00000008H .rtc$TAA                DATA
 0002:00001008 00000008H .rtc$TZZ                DATA
 0002:00001010 000002bcH .xdata                  DATA
 0002:000012cc 0000008cH .idata$2                DATA
 0002:00001358 00000014H .idata$3                DATA
 0002:00001370 00000240H .idata$4                DATA
 0002:000015b0 00000546H .idata$6                DATA
 0002:00001b00 000000d4H .edata                  DATA
 0003:00000000 00000728H .data                   DATA
 0003:00000730 000005b8H .bss                    DATA
 0004:00000000 00000240H .pdata                  DATA

  Address         Publics by Value              Rva+Base               Lib:Object

 0000:00000000       ___safe_se_handler_count   0000000000000000     <absolute>
 0000:00000000       ___safe_se_handler_table   0000000000000000     <absolute>
 0000:00000000       __ImageBase                0000000180000000     <linker-defined>
 0001:00000000       message                    0000000180001000 f   Kalman_boucle_mexutil.obj
 0001:00000050       Kalman_boucle_initialize   0000000180001050 f   Kalman_boucle_initialize.obj
 0001:00000080       Kalman_boucle_atexit       0000000180001080 f   Kalman_boucle_terminate.obj
 0001:000000b0       Kalman_boucle_terminate    00000001800010b0 f   Kalman_boucle_terminate.obj
 0001:00000340       Kalman_boucle              0000000180001340 f   Kalman_boucle.obj
 0001:000018b0       invNxN                     00000001800028b0 f   inv.obj
 0001:00002770       norm                       0000000180003770 f   norm.obj
 0001:00002a70       Kalman_boucle_api          0000000180003a70 f   Kalman_boucle_api.obj
 0001:000031a0       Kalman_boucle_atexit_wrapper 00000001800041a0 f   Kalman_boucle_mex.obj
 0001:000031b0       mexFunction                00000001800041b0 f   Kalman_boucle_mex.obj
 0001:00003220       emlrtMexFcnProperties      0000000180004220 f   Kalman_boucle_mex.obj
 0001:0000335a       mxCreateCharArray_700      000000018000435a f   libmx:libmx.dll
 0001:00003360       mxCreateDoubleScalar       0000000180004360 f   libmx:libmx.dll
 0001:00003366       mxGetNaN                   0000000180004366 f   libmx:libmx.dll
 0001:0000336c       mxGetPr                    000000018000436c f   libmx:libmx.dll
 0001:00003372       mxCreateNumericArray_700   0000000180004372 f   libmx:libmx.dll
 0001:00003378       mxGetData                  0000000180004378 f   libmx:libmx.dll
 0001:0000337e       mxSetFieldByNumber_700     000000018000437e f   libmx:libmx.dll
 0001:00003384       mxCreateString             0000000180004384 f   libmx:libmx.dll
 0001:0000338a       mxCreateLogicalMatrix_700  000000018000438a f   libmx:libmx.dll
 0001:00003390       mxCreateStructMatrix_700   0000000180004390 f   libmx:libmx.dll
 0001:00003396       mexErrMsgIdAndTxt          0000000180004396 f   libmex:libmex.dll
 0001:0000339c       mexAtExit                  000000018000439c f   libmex:libmex.dll
 0001:000033a2       emlrtCallMATLAB            00000001800043a2 f   libemlrt:libemlrt.dll
 0001:000033a8       emlrtFirstTime             00000001800043a8 f   libemlrt:libemlrt.dll
 0001:000033ae       emlrtEnterRtStack          00000001800043ae f   libemlrt:libemlrt.dll
 0001:000033b4       emlrtExitTimeCleanup       00000001800043b4 f   libemlrt:libemlrt.dll
 0001:000033ba       emlrtLeaveRtStack          00000001800043ba f   libemlrt:libemlrt.dll
 0001:000033c0       emlrtDestroyArray          00000001800043c0 f   libemlrt:libemlrt.dll
 0001:000033c6       emlrtImportCharArray       00000001800043c6 f   libemlrt:libemlrt.dll
 0001:000033cc       emlrtCheckBuiltInCtxR2011b 00000001800043cc f   libemlrt:libemlrt.dll
 0001:000033d2       emlrtPopRtStack            00000001800043d2 f   libemlrt:libemlrt.dll
 0001:000033d8       emlrtAssign                00000001800043d8 f   libemlrt:libemlrt.dll
 0001:000033de       emlrtInitCharArray         00000001800043de f   libemlrt:libemlrt.dll
 0001:000033e4       emlrtPushRtStack           00000001800043e4 f   libemlrt:libemlrt.dll
 0001:000033ea       emlrtAlias                 00000001800043ea f   libemlrt:libemlrt.dll
 0001:000033f0       emlrtBoundsCheck           00000001800043f0 f   libemlrt:libemlrt.dll
 0001:000033f6       emlrtAliasP                00000001800043f6 f   libemlrt:libemlrt.dll
 0001:000033fc       emlrtReturnArrayR2009a     00000001800043fc f   libemlrt:libemlrt.dll
 0001:00003402       emlrtClearAllocCount       0000000180004402 f   libemlrt:libemlrt.dll
 0001:00003408       dtrsm32                    0000000180004408 f   libmwblascompat32:libmwblascompat32.dll
 0001:0000340e       muDoubleScalarIsNaN        000000018000440e f   libmwmathutil:libmwmathutil.dll
 0001:00003414       muDoubleScalarAbs          0000000180004414 f   libmwmathutil:libmwmathutil.dll
 0001:0000341c       __GSHandlerCheckCommon     000000018000441c f   MSVCRT:gshandler.obj
 0001:00003480       __GSHandlerCheck           0000000180004480 f   MSVCRT:gshandler.obj
 0001:000034b0       __security_check_cookie    00000001800044b0 f   MSVCRT:amdsecgs.obj
 0001:000034d0       memcpy                     00000001800044d0 f   MSVCRT:MSVCR90.dll
 0001:000034d6       memset                     00000001800044d6 f   MSVCRT:MSVCR90.dll
 0001:0000353c       _CRT_INIT                  000000018000453c f   MSVCRT:crtdll.obj
 0001:000038d0       _DllMainCRTStartup         00000001800048d0 f   MSVCRT:crtdll.obj
 0001:00003910       __report_gsfailure         0000000180004910 f   MSVCRT:gs_report.obj
 0001:00003a5c       __clean_type_info_names    0000000180004a5c f   MSVCRT:tncleanup.obj
 0001:00003a68       _onexit                    0000000180004a68 f   MSVCRT:atonexit.obj
 0001:00003b18       atexit                     0000000180004b18 f   MSVCRT:atonexit.obj
 0001:00003b30       _RTC_Initialize            0000000180004b30 f   MSVCRT:_initsect_.obj
 0001:00003b68       _RTC_Terminate             0000000180004b68 f   MSVCRT:_initsect_.obj
 0001:00003ba0       _ValidateImageBase         0000000180004ba0 f   MSVCRT:pesect.obj
 0001:00003bd0       _FindPESection             0000000180004bd0 f   MSVCRT:pesect.obj
 0001:00003c20       _IsNonwritableInCurrentImage 0000000180004c20 f   MSVCRT:pesect.obj
 0001:00003c62       _initterm                  0000000180004c62 f   MSVCRT:MSVCR90.dll
 0001:00003c68       _initterm_e                0000000180004c68 f   MSVCRT:MSVCR90.dll
 0001:00003c6e       _amsg_exit                 0000000180004c6e f   MSVCRT:MSVCR90.dll
 0001:00003c74       __C_specific_handler       0000000180004c74 f   MSVCRT:MSVCR90.dll
 0001:00003c7a       __CppXcptFilter            0000000180004c7a f   MSVCRT:MSVCR90.dll
 0001:00003c80       DllMain                    0000000180004c80 f   MSVCRT:dllmain.obj
 0001:00003ca4       __security_init_cookie     0000000180004ca4 f   MSVCRT:gs_support.obj
 0001:00003d58       __crt_debugger_hook        0000000180004d58 f   MSVCRT:MSVCR90.dll
 0001:00003d5e       __clean_type_info_names_internal 0000000180004d5e f   MSVCRT:MSVCR90.dll
 0001:00003d64       _unlock                    0000000180004d64 f   MSVCRT:MSVCR90.dll
 0001:00003d6a       __dllonexit                0000000180004d6a f   MSVCRT:MSVCR90.dll
 0001:00003d70       _lock                      0000000180004d70 f   MSVCRT:MSVCR90.dll
 0001:00003d76       RtlVirtualUnwind           0000000180004d76 f   kernel32:KERNEL32.dll
 0001:00003d7c       RtlLookupFunctionEntry     0000000180004d7c f   kernel32:KERNEL32.dll
 0002:00000000       __imp_GetSystemTimeAsFileTime 0000000180005000     kernel32:KERNEL32.dll
 0002:00000008       __imp_GetCurrentProcessId  0000000180005008     kernel32:KERNEL32.dll
 0002:00000010       __imp_GetCurrentThreadId   0000000180005010     kernel32:KERNEL32.dll
 0002:00000018       __imp_GetTickCount         0000000180005018     kernel32:KERNEL32.dll
 0002:00000020       __imp_QueryPerformanceCounter 0000000180005020     kernel32:KERNEL32.dll
 0002:00000028       __imp_DisableThreadLibraryCalls 0000000180005028     kernel32:KERNEL32.dll
 0002:00000030       __imp_RtlCaptureContext    0000000180005030     kernel32:KERNEL32.dll
 0002:00000038       __imp_RtlLookupFunctionEntry 0000000180005038     kernel32:KERNEL32.dll
 0002:00000040       __imp_RtlVirtualUnwind     0000000180005040     kernel32:KERNEL32.dll
 0002:00000048       __imp_IsDebuggerPresent    0000000180005048     kernel32:KERNEL32.dll
 0002:00000050       __imp_UnhandledExceptionFilter 0000000180005050     kernel32:KERNEL32.dll
 0002:00000058       __imp_GetCurrentProcess    0000000180005058     kernel32:KERNEL32.dll
 0002:00000060       __imp_TerminateProcess     0000000180005060     kernel32:KERNEL32.dll
 0002:00000068       __imp_Sleep                0000000180005068     kernel32:KERNEL32.dll
 0002:00000070       __imp_SetUnhandledExceptionFilter 0000000180005070     kernel32:KERNEL32.dll
 0002:00000078       \177KERNEL32_NULL_THUNK_DATA 0000000180005078     kernel32:KERNEL32.dll
 0002:00000080       __imp_memset               0000000180005080     MSVCRT:MSVCR90.dll
 0002:00000088       __imp___crt_debugger_hook  0000000180005088     MSVCRT:MSVCR90.dll
 0002:00000090       __imp___CppXcptFilter      0000000180005090     MSVCRT:MSVCR90.dll
 0002:00000098       __imp___C_specific_handler 0000000180005098     MSVCRT:MSVCR90.dll
 0002:000000a0       __imp__amsg_exit           00000001800050a0     MSVCRT:MSVCR90.dll
 0002:000000a8       __imp__decode_pointer      00000001800050a8     MSVCRT:MSVCR90.dll
 0002:000000b0       __imp__encoded_null        00000001800050b0     MSVCRT:MSVCR90.dll
 0002:000000b8       __imp_free                 00000001800050b8     MSVCRT:MSVCR90.dll
 0002:000000c0       __imp__initterm_e          00000001800050c0     MSVCRT:MSVCR90.dll
 0002:000000c8       __imp__initterm            00000001800050c8     MSVCRT:MSVCR90.dll
 0002:000000d0       __imp__malloc_crt          00000001800050d0     MSVCRT:MSVCR90.dll
 0002:000000d8       __imp__encode_pointer      00000001800050d8     MSVCRT:MSVCR90.dll
 0002:000000e0       __imp_memcpy               00000001800050e0     MSVCRT:MSVCR90.dll
 0002:000000e8       __imp__unlock              00000001800050e8     MSVCRT:MSVCR90.dll
 0002:000000f0       __imp___dllonexit          00000001800050f0     MSVCRT:MSVCR90.dll
 0002:000000f8       __imp__lock                00000001800050f8     MSVCRT:MSVCR90.dll
 0002:00000100       __imp__onexit              0000000180005100     MSVCRT:MSVCR90.dll
 0002:00000108       __imp___clean_type_info_names_internal 0000000180005108     MSVCRT:MSVCR90.dll
 0002:00000110       \177MSVCR90_NULL_THUNK_DATA 0000000180005110     MSVCRT:MSVCR90.dll
 0002:00000118       __imp_emlrtFirstTime       0000000180005118     libemlrt:libemlrt.dll
 0002:00000120       __imp_emlrtReturnArrayR2009a 0000000180005120     libemlrt:libemlrt.dll
 0002:00000128       __imp_emlrtEnterRtStack    0000000180005128     libemlrt:libemlrt.dll
 0002:00000130       __imp_emlrtAliasP          0000000180005130     libemlrt:libemlrt.dll
 0002:00000138       __imp_emlrtBoundsCheck     0000000180005138     libemlrt:libemlrt.dll
 0002:00000140       __imp_emlrtAlias           0000000180005140     libemlrt:libemlrt.dll
 0002:00000148       __imp_emlrtPushRtStack     0000000180005148     libemlrt:libemlrt.dll
 0002:00000150       __imp_emlrtInitCharArray   0000000180005150     libemlrt:libemlrt.dll
 0002:00000158       __imp_emlrtAssign          0000000180005158     libemlrt:libemlrt.dll
 0002:00000160       __imp_emlrtPopRtStack      0000000180005160     libemlrt:libemlrt.dll
 0002:00000168       __imp_emlrtCheckBuiltInCtxR2011b 0000000180005168     libemlrt:libemlrt.dll
 0002:00000170       __imp_emlrtImportCharArray 0000000180005170     libemlrt:libemlrt.dll
 0002:00000178       __imp_emlrtDestroyArray    0000000180005178     libemlrt:libemlrt.dll
 0002:00000180       __imp_emlrtLeaveRtStack    0000000180005180     libemlrt:libemlrt.dll
 0002:00000188       __imp_emlrtExitTimeCleanup 0000000180005188     libemlrt:libemlrt.dll
 0002:00000190       __imp_emlrtCallMATLAB      0000000180005190     libemlrt:libemlrt.dll
 0002:00000198       __imp_emlrtClearAllocCount 0000000180005198     libemlrt:libemlrt.dll
 0002:000001a0       \177libemlrt_NULL_THUNK_DATA 00000001800051a0     libemlrt:libemlrt.dll
 0002:000001a8       __imp_mexAtExit            00000001800051a8     libmex:libmex.dll
 0002:000001b0       __imp_mexErrMsgIdAndTxt    00000001800051b0     libmex:libmex.dll
 0002:000001b8       \177libmex_NULL_THUNK_DATA 00000001800051b8     libmex:libmex.dll
 0002:000001c0       __imp_dtrsm32              00000001800051c0     libmwblascompat32:libmwblascompat32.dll
 0002:000001c8       \177libmwblascompat32_NULL_THUNK_DATA 00000001800051c8     libmwblascompat32:libmwblascompat32.dll
 0002:000001d0       __imp_muDoubleScalarAbs    00000001800051d0     libmwmathutil:libmwmathutil.dll
 0002:000001d8       __imp_muDoubleScalarIsNaN  00000001800051d8     libmwmathutil:libmwmathutil.dll
 0002:000001e0       \177libmwmathutil_NULL_THUNK_DATA 00000001800051e0     libmwmathutil:libmwmathutil.dll
 0002:000001e8       __imp_mxCreateStructMatrix_700 00000001800051e8     libmx:libmx.dll
 0002:000001f0       __imp_mxCreateLogicalMatrix_700 00000001800051f0     libmx:libmx.dll
 0002:000001f8       __imp_mxCreateString       00000001800051f8     libmx:libmx.dll
 0002:00000200       __imp_mxSetFieldByNumber_700 0000000180005200     libmx:libmx.dll
 0002:00000208       __imp_mxGetData            0000000180005208     libmx:libmx.dll
 0002:00000210       __imp_mxCreateNumericArray_700 0000000180005210     libmx:libmx.dll
 0002:00000218       __imp_mxGetPr              0000000180005218     libmx:libmx.dll
 0002:00000220       __imp_mxGetNaN             0000000180005220     libmx:libmx.dll
 0002:00000228       __imp_mxCreateDoubleScalar 0000000180005228     libmx:libmx.dll
 0002:00000230       __imp_mxCreateCharArray_700 0000000180005230     libmx:libmx.dll
 0002:00000238       \177libmx_NULL_THUNK_DATA  0000000180005238     libmx:libmx.dll
 0002:00000240       __xc_a                     0000000180005240     MSVCRT:cinitexe.obj
 0002:00000248       __xc_z                     0000000180005248     MSVCRT:cinitexe.obj
 0002:00000250       __xi_a                     0000000180005250     MSVCRT:cinitexe.obj
 0002:00000260       __xi_z                     0000000180005260     MSVCRT:cinitexe.obj
 0002:00000270       ??_C@_07ONPBMBOP@message?$AA@ 0000000180005270     Kalman_boucle_mexutil.obj
 0002:00000280       ??_C@_0FK@KBBBPGAF@C?3?1Program?5Files?1MatLab?52012a?1to@ 0000000180005280     Kalman_boucle_data.obj
 0002:000002e0       ??_C@_0BC@LCIGPACO@eml_refblas_xtrsm?$AA@ 00000001800052e0     Kalman_boucle_data.obj
 0002:00000300       ??_C@_0FI@PHCEPPEO@C?3?1Program?5Files?1MatLab?52012a?1to@ 0000000180005300     Kalman_boucle_data.obj
 0002:00000358       ??_C@_0P@GLNMGNEA@eml_blas_xtrsm?$AA@ 0000000180005358     Kalman_boucle_data.obj
 0002:00000370       ??_C@_0EH@GILECFND@C?3?1Program?5Files?1MatLab?52012a?1to@ 0000000180005370     Kalman_boucle.obj
 0002:000003b8       ??_C@_0M@OPBAGMPI@eml_flt2str?$AA@ 00000001800053b8     Kalman_boucle.obj
 0002:000003d0       ??_C@_0EH@JMFHKLGF@C?3?1Program?5Files?1MatLab?52012a?1to@ 00000001800053d0     Kalman_boucle.obj
 0002:00000418       ??_C@_0M@MMMIKBD@eml_warning?$AA@ 0000000180005418     Kalman_boucle.obj
 0002:00000430       ??_C@_0EC@JFDKOJKN@C?3?1Program?5Files?1MatLab?52012a?1to@ 0000000180005430     Kalman_boucle.obj
 0002:00000474       ??_C@_03KDLJKADA@inv?$AA@  0000000180005474     Kalman_boucle.obj
 0002:00000480       ??_C@_0EB@EKONOKCL@C?3?1Program?5Files?1MatLab?52012a?1to@ 0000000180005480     Kalman_boucle.obj
 0002:000004c4       ??_C@_03JBOJOLOP@eye?$AA@  00000001800054c4     Kalman_boucle.obj
 0002:000004c8       ??_C@_0CP@CKNBPACA@U?3?15?5SEC?1Projet_Roxanne?1Kalman?1K@ 00000001800054c8     Kalman_boucle.obj
 0002:000004f8       ??_C@_0O@MHFHBNOM@Kalman_boucle?$AA@ 00000001800054f8     Kalman_boucle.obj
 0002:000005c0       ??_C@_07DNAEFDKF@sprintf?$AA@ 00000001800055c0     Kalman_boucle.obj
 0002:000005c8       ??_C@_04ENMBGAPA@char?$AA@ 00000001800055c8     Kalman_boucle.obj
 0002:000005d0       ??_C@_07FPLKDJGL@warning?$AA@ 00000001800055d0     Kalman_boucle.obj
 0002:000005d8       __real@4018000000000000    00000001800055d8     Kalman_boucle.obj
 0002:000005e0       __real@402c000000000000    00000001800055e0     Kalman_boucle.obj
 0002:000005e8       __real@3cb0000000000000    00000001800055e8     Kalman_boucle.obj
 0002:000005f0       __real@3ff0000000000000    00000001800055f0     Kalman_boucle.obj
 0002:00000600       ??_C@_0FK@IMCIBCJI@C?3?1Program?5Files?1MatLab?52012a?1to@ 0000000180005600     inv.obj
 0002:00000660       ??_C@_0BC@NHLGMHAO@eml_refblas_xswap?$AA@ 0000000180005660     inv.obj
 0002:00000680       ??_C@_0EJ@HGIPDDII@C?3?1Program?5Files?1MatLab?52012a?1to@ 0000000180005680     inv.obj
 0002:000006d0       ??_C@_0O@PAIIPFF@eml_ipiv2perm?$AA@ 00000001800056d0     inv.obj
 0002:000006de       ??_C@_00CNPNBAHC@?$AA@     00000001800056de     inv.obj
 0002:000006e0       ??_C@_0EK@DEGIFGEE@C?3?1Program?5Files?1MatLab?52012a?1to@ 00000001800056e0     inv.obj
 0002:00000730       ??_C@_09HILPHALD@eml_xtrsm?$AA@ 0000000180005730     inv.obj
 0002:00000740       ??_C@_0FK@LDFDMMGI@C?3?1Program?5Files?1MatLab?52012a?1to@ 0000000180005740     inv.obj
 0002:000007a0       ??_C@_0BC@GOHPPOHJ@eml_refblas_xgerx?$AA@ 00000001800057a0     inv.obj
 0002:000007c0       ??_C@_0FJ@LFNABFNJ@C?3?1Program?5Files?1MatLab?52012a?1to@ 00000001800057c0     inv.obj
 0002:00000820       ??_C@_0BB@EKCGGHJJ@eml_refblas_xger?$AA@ 0000000180005820     inv.obj
 0002:00000840       ??_C@_0FH@DDBNHNOM@C?3?1Program?5Files?1MatLab?52012a?1to@ 0000000180005840     inv.obj
 0002:00000898       ??_C@_0O@MGOBNFHA@eml_blas_xger?$AA@ 0000000180005898     inv.obj
 0002:000008b0       ??_C@_0EJ@HDDKNGBB@C?3?1Program?5Files?1MatLab?52012a?1to@ 00000001800058b0     inv.obj
 0002:00000900       ??_C@_08MJGEHAGI@eml_xger?$AA@ 0000000180005900     inv.obj
 0002:00000910       ??_C@_0EK@NEEALEPE@C?3?1Program?5Files?1MatLab?52012a?1to@ 0000000180005910     inv.obj
 0002:00000960       ??_C@_09BBOIAAKJ@eml_xgeru?$AA@ 0000000180005960     inv.obj
 0002:00000970       ??_C@_0FI@NKBNBLND@C?3?1Program?5Files?1MatLab?52012a?1to@ 0000000180005970     inv.obj
 0002:000009c8       ??_C@_0P@OOMFKGA@eml_blas_xswap?$AA@ 00000001800059c8     inv.obj
 0002:000009e0       ??_C@_0EK@BJFBLCNJ@C?3?1Program?5Files?1MatLab?52012a?1to@ 00000001800059e0     inv.obj
 0002:00000a30       ??_C@_09BNIPEHJD@eml_xswap?$AA@ 0000000180005a30     inv.obj
 0002:00000a40       ??_C@_0FK@IGGJPAIO@C?3?1Program?5Files?1MatLab?52012a?1to@ 0000000180005a40     inv.obj
 0002:00000aa0       ??_C@_0BP@OEONONCM@eml_int_forloop_overflow_check?$AA@ 0000000180005aa0     inv.obj
 0002:00000ac0       ??_C@_0FL@HKCMNILA@C?3?1Program?5Files?1MatLab?52012a?1to@ 0000000180005ac0     inv.obj
 0002:00000b20       ??_C@_0BD@BDHFBLFK@eml_refblas_ixamax?$AA@ 0000000180005b20     inv.obj
 0002:00000b40       ??_C@_0FJ@JLHEHFKB@C?3?1Program?5Files?1MatLab?52012a?1to@ 0000000180005b40     inv.obj
 0002:00000ba0       ??_C@_0BA@LJKGANJI@eml_blas_ixamax?$AA@ 0000000180005ba0     inv.obj
 0002:00000bb0       ??_C@_0EL@HLGCNABG@C?3?1Program?5Files?1MatLab?52012a?1to@ 0000000180005bb0     inv.obj
 0002:00000c00       ??_C@_0L@JNABMNCD@eml_ixamax?$AA@ 0000000180005c00     inv.obj
 0002:00000c10       ??_C@_0FL@JEGOBGCM@C?3?1Program?5Files?1MatLab?52012a?1to@ 0000000180005c10     inv.obj
 0002:00000c70       ??_C@_0BC@GHDOHOEM@eml_matlab_zgetrf?$AA@ 0000000180005c70     inv.obj
 0002:00000c90       ??_C@_0FN@CONJGHHJ@C?3?1Program?5Files?1MatLab?52012a?1to@ 0000000180005c90     inv.obj
 0002:00000cf0       ??_C@_0BC@NGKJOAN@eml_lapack_xgetrf?$AA@ 0000000180005cf0     inv.obj
 0002:00000d10       ??_C@_0EN@LOBOLLI@C?3?1Program?5Files?1MatLab?52012a?1to@ 0000000180005d10     inv.obj
 0002:00000d60       ??_C@_0L@LMJIHGDE@eml_xgetrf?$AA@ 0000000180005d60     inv.obj
 0002:00000df0       ??_C@_05KKCIMGE@error?$AA@ 0000000180005df0     inv.obj
 0002:00000e00       ??_C@_0ED@HIKHHPPH@C?3?1Program?5Files?1MatLab?52012a?1to@ 0000000180005e00     norm.obj
 0002:00000e44       ??_C@_04PLLMIPEP@norm?$AA@ 0000000180005e44     norm.obj
 0002:00000e60       ??_C@_06BNJCAIGJ@double?$AA@ 0000000180005e60     Kalman_boucle_api.obj
 0002:00000e68       ??_C@_04GPLOFMMI@Zpre?$AA@ 0000000180005e68     Kalman_boucle_api.obj
 0002:00000e70       ??_C@_04CFAOEEGJ@Ppre?$AA@ 0000000180005e70     Kalman_boucle_api.obj
 0002:00000e78       ??_C@_04BFHOAPKI@Xpre?$AA@ 0000000180005e78     Kalman_boucle_api.obj
 0002:00000e80       ??_C@_01DGKLNCNG@R?$AA@    0000000180005e80     Kalman_boucle_api.obj
 0002:00000e88       ??_C@_0L@LGJIJMDO@NewMeasure?$AA@ 0000000180005e88     Kalman_boucle_api.obj
 0002:00000e98       ??_C@_0CH@DLJMAEFE@emlcoder?3emlmex?3TooManyOutputArg@ 0000000180005e98     Kalman_boucle_mex.obj
 0002:00000ec0       ??_C@_0DL@BDLKFIPO@Too?5many?5output?5arguments?5for?5en@ 0000000180005ec0     Kalman_boucle_mex.obj
 0002:00000f00       ??_C@_0CE@IHHIPLIO@emlcoder?3emlmex?3WrongNumberOfInp@ 0000000180005f00     Kalman_boucle_mex.obj
 0002:00000f28       ??_C@_0DD@GKHIKGDM@5?5inputs?5required?5for?5entry?9poin@ 0000000180005f28     Kalman_boucle_mex.obj
 0002:00000f60       ??_C@_0BE@KJFOAHGP@7?414?40?4739?5?$CIR2012a?$CJ?$AA@ 0000000180005f60     Kalman_boucle_mex.obj
 0002:00000f78       __real@4010000000000000    0000000180005f78     Kalman_boucle_mex.obj
 0002:00000f80       __real@4014000000000000    0000000180005f80     Kalman_boucle_mex.obj
 0002:00000f88       ??_C@_0P@FDPDNMBC@ConstantInputs?$AA@ 0000000180005f88     Kalman_boucle_mex.obj
 0002:00000f98       ??_C@_0BA@HBLCOFA@NumberOfOutputs?$AA@ 0000000180005f98     Kalman_boucle_mex.obj
 0002:00000fa8       ??_C@_0P@DJPKAEOC@NumberOfInputs?$AA@ 0000000180005fa8     Kalman_boucle_mex.obj
 0002:00000fb8       ??_C@_04FABLJDN@Name?$AA@  0000000180005fb8     Kalman_boucle_mex.obj
 0002:00000fc0       ??_C@_0M@HOOGCLMJ@EntryPoints?$AA@ 0000000180005fc0     Kalman_boucle_mex.obj
 0002:00000fd0       ??_C@_07NGFJPNPN@Version?$AA@ 0000000180005fd0     Kalman_boucle_mex.obj
 0002:00000fd8       _pRawDllMain               0000000180005fd8     MSVCRT:crtdll.obj
 0002:00000fd8       _pDefaultRawDllMain        0000000180005fd8     MSVCRT:crtdll.obj
 0002:00000ff0       __rtc_iaa                  0000000180005ff0     MSVCRT:_initsect_.obj
 0002:00000ff8       __rtc_izz                  0000000180005ff8     MSVCRT:_initsect_.obj
 0002:00001000       __rtc_taa                  0000000180006000     MSVCRT:_initsect_.obj
 0002:00001008       __rtc_tzz                  0000000180006008     MSVCRT:_initsect_.obj
 0002:000012cc       __IMPORT_DESCRIPTOR_libmx  00000001800062cc     libmx:libmx.dll
 0002:000012e0       __IMPORT_DESCRIPTOR_libmex 00000001800062e0     libmex:libmex.dll
 0002:000012f4       __IMPORT_DESCRIPTOR_libemlrt 00000001800062f4     libemlrt:libemlrt.dll
 0002:00001308       __IMPORT_DESCRIPTOR_libmwblascompat32 0000000180006308     libmwblascompat32:libmwblascompat32.dll
 0002:0000131c       __IMPORT_DESCRIPTOR_libmwmathutil 000000018000631c     libmwmathutil:libmwmathutil.dll
 0002:00001330       __IMPORT_DESCRIPTOR_MSVCR90 0000000180006330     MSVCRT:MSVCR90.dll
 0002:00001344       __IMPORT_DESCRIPTOR_KERNEL32 0000000180006344     kernel32:KERNEL32.dll
 0002:00001358       __NULL_IMPORT_DESCRIPTOR   0000000180006358     libmx:libmx.dll
 0003:00000000       gb_emlrtRSI                0000000180007000     Kalman_boucle_data.obj
 0003:00000018       ib_emlrtRSI                0000000180007018     Kalman_boucle_data.obj
 0003:000006b0       emlrtContextGlobal         00000001800076b0     Kalman_boucle_mex.obj
 0003:00000700       __security_cookie          0000000180007700     MSVCRT:gs_cookie.obj
 0003:00000708       __security_cookie_complement 0000000180007708     MSVCRT:gs_cookie.obj
 0003:00000710       _fltused                   0000000180007710     MSVCRT:dllsupp.obj
 0003:00000720       __native_dllmain_reason    0000000180007720     MSVCRT:natstart.obj
 0003:00000724       __native_vcclrit_reason    0000000180007724     MSVCRT:natstart.obj
 0003:00000cb0       ?__type_info_root_node@@3U__type_info_node@@A 0000000180007cb0     MSVCRT:tncleanup.obj
 0003:00000cc0       __native_startup_state     0000000180007cc0     <common>
 0003:00000cc8       __native_startup_lock      0000000180007cc8     <common>
 0003:00000cd0       __onexitend                0000000180007cd0     <common>
 0003:00000cd8       __onexitbegin              0000000180007cd8     <common>
 0003:00000ce0       __dyn_tls_init_callback    0000000180007ce0     <common>

 entry point at        0001:000038d0

 Static symbols

 0001:000000c0       b_eml_warning              00000001800010c0 f   Kalman_boucle.obj
 0001:00000210       eml_warning                0000000180001210 f   Kalman_boucle.obj
 0001:000015f0       b_eml_int_forloop_overflow_chec 00000001800025f0 f   inv.obj
 0001:00001750       eml_int_forloop_overflow_check 0000000180002750 f   inv.obj
 0001:00002890       e_emlrt_marshallIn         0000000180003890 f   Kalman_boucle_api.obj
 0001:00002980       i_emlrt_marshallIn         0000000180003980 f   Kalman_boucle_api.obj
 0001:000030f0       Kalman_boucle_mexFunction  00000001800040f0 f   Kalman_boucle_mex.obj
 0001:000034dc       pre_c_init                 00000001800044dc f   MSVCRT:crtdll.obj
 0001:00003798       __DllMainCRTStartup        0000000180004798 f   MSVCRT:crtdll.obj
 0001:00003d90       __DllMainCRTStartup$filt$0 0000000180004d90 f   MSVCRT:crtdll.obj
 0001:00003dc0       __DllMainCRTStartup$fin$1  0000000180004dc0 f   MSVCRT:crtdll.obj
 0001:00003dd9       _onexit$fin$0              0000000180004dd9 f   MSVCRT:atonexit.obj
 0001:00003e00       _IsNonwritableInCurrentImage$filt$0 0000000180004e00 f   MSVCRT:pesect.obj
